; Function Attrs: cold mustprogress nofree norecurse nosync nounwind optsize willreturn memory(read, inaccessiblemem: none) uwtable
define internal range(i32 -22, 1) i32 @init(ptr noundef readonly captures(none) %0) #0 {
  %2 = getelementptr inbounds nuw i8, ptr %0, i64 72
  %3 = load ptr, ptr %2, align 8, !tbaa !4
  %4 = getelementptr inbounds nuw i8, ptr %3, i64 8
  %5 = load i32, ptr %4, align 8, !tbaa !20
  %6 = getelementptr inbounds nuw i8, ptr %3, i64 12
  %7 = load i32, ptr %6, align 4, !tbaa !23
  %8 = icmp sgt i32 %5, %7
  %. = select i1 %8, i32 -22, i32 0
  ret i32 %.
}